target datalayout = "e-m:e-p270:32:32-p271:32:32-p272:64:64-i64:64-i128:128-f80:128-n8:16:32:64-S128"
target triple = "x86_64-pc-linux-gnu"

%struct.ossl_cmp_msg_st = type { ptr, ptr, ptr, ptr, ptr, ptr }
%struct.ossl_cmp_ctx_st = type { ptr, ptr, ptr, i32, ptr, ptr, ptr, ptr, ptr, i32, ptr, ptr, i32, i32, i32, i32, i64, ptr, ptr, i32, i32, ptr, ptr, ptr, ptr, ptr, i32, i32, i32, ptr, ptr, ptr, ptr, ptr, i64, ptr, i32, i32, ptr, ptr, ptr, ptr, ptr, ptr, ptr, ptr, i32, i32, ptr, ptr, i32, ptr, ptr, i32, ptr, ptr, i32, i32, ptr, ptr, i32, i32, ptr, ptr, i32, ptr, i32, ptr, i32, ptr, ptr, ptr, ptr, ptr, ptr }
%struct.ossl_cmp_pkiheader_st = type { ptr, ptr, ptr, ptr, ptr, ptr, ptr, ptr, ptr, ptr, ptr, ptr }

@.str = private unnamed_addr constant [32 x i8] c"../openssl/crypto/cmp/cmp_msg.c\00", align 1
@__func__.OSSL_CMP_MSG_update_recipNonce = private unnamed_addr constant [31 x i8] c"OSSL_CMP_MSG_update_recipNonce\00", align 1

; Function Attrs: nounwind uwtable
define i32 @OSSL_CMP_MSG_update_recipNonce(ptr noundef %0, ptr noundef %1) #0 {
  %3 = alloca i32, align 4
  %4 = alloca ptr, align 8
  %5 = alloca ptr, align 8
  store ptr %0, ptr %4, align 8, !tbaa !34
  store ptr %1, ptr %5, align 8, !tbaa !10
  %6 = load ptr, ptr %4, align 8, !tbaa !34
  %7 = icmp eq ptr %6, null
  br i1 %7, label %16, label %8

8:                                                ; preds = %2
  %9 = load ptr, ptr %5, align 8, !tbaa !10
  %10 = icmp eq ptr %9, null
  br i1 %10, label %16, label %11

11:                                               ; preds = %8
  %12 = load ptr, ptr %5, align 8, !tbaa !10
  %13 = getelementptr inbounds nuw %struct.ossl_cmp_msg_st, ptr %12, i32 0, i32 0
  %14 = load ptr, ptr %13, align 8, !tbaa !19
  %15 = icmp eq ptr %14, null
  br i1 %15, label %16, label %17

16:                                               ; preds = %11, %8, %2
  call void @ERR_new()
  call void @ERR_set_debug(ptr noundef @.str, i32 noundef 1191, ptr noundef @__func__.OSSL_CMP_MSG_update_recipNonce)
  call void (i32, i32, ptr, ...) @ERR_set_error(i32 noundef 58, i32 noundef 103, ptr noundef null)
  store i32 0, ptr %3, align 4
  br label %49

17:                                               ; preds = %11
  %18 = load ptr, ptr %4, align 8, !tbaa !34
  %19 = getelementptr inbounds nuw %struct.ossl_cmp_ctx_st, ptr %18, i32 0, i32 42
  %20 = load ptr, ptr %19, align 8, !tbaa !180
  %21 = icmp eq ptr %20, null
  br i1 %21, label %22, label %23

22:                                               ; preds = %17
  store i32 1, ptr %3, align 4
  br label %49

23:                                               ; preds = %17
  %24 = load ptr, ptr %5, align 8, !tbaa !10
  %25 = getelementptr inbounds nuw %struct.ossl_cmp_msg_st, ptr %24, i32 0, i32 0
  %26 = load ptr, ptr %25, align 8, !tbaa !19
  %27 = getelementptr inbounds nuw %struct.ossl_cmp_pkiheader_st, ptr %26, i32 0, i32 9
  %28 = load ptr, ptr %4, align 8, !tbaa !34
  %29 = getelementptr inbounds nuw %struct.ossl_cmp_ctx_st, ptr %28, i32 0, i32 42
  %30 = load ptr, ptr %29, align 8, !tbaa !180
  %31 = call i32 @ossl_cmp_asn1_octet_string_set1(ptr noundef %27, ptr noundef %30)
  %32 = icmp ne i32 %31, 0
  br i1 %32, label %34, label %33

33:                                               ; preds = %23
  store i32 0, ptr %3, align 4
  br label %49

34:                                               ; preds = %23
  %35 = load ptr, ptr %5, align 8, !tbaa !10
  %36 = getelementptr inbounds nuw %struct.ossl_cmp_msg_st, ptr %35, i32 0, i32 0
  %37 = load ptr, ptr %36, align 8, !tbaa !19
  %38 = getelementptr inbounds nuw %struct.ossl_cmp_pkiheader_st, ptr %37, i32 0, i32 4
  %39 = load ptr, ptr %38, align 8, !tbaa !177
  %40 = icmp eq ptr %39, null
  br i1 %40, label %46, label %41

41:                                               ; preds = %34
  %42 = load ptr, ptr %4, align 8, !tbaa !34
  %43 = load ptr, ptr %5, align 8, !tbaa !10
  %44 = call i32 @ossl_cmp_msg_protect(ptr noundef %42, ptr noundef %43)
  %45 = icmp ne i32 %44, 0
  br label %46

46:                                               ; preds = %41, %34
  %47 = phi i1 [ true, %34 ], [ %45, %41 ]
  %48 = zext i1 %47 to i32
  store i32 %48, ptr %3, align 4
  br label %49

49:                                               ; preds = %46, %33, %22, %16
  %50 = load i32, ptr %3, align 4
  ret i32 %50
}