; Function Attrs: nounwind uwtable
define range(i32 0, 2) i32 @OSSL_CMP_MSG_update_recipNonce(ptr noundef %0, ptr noundef %1) local_unnamed_addr #0 {
  %3 = icmp eq ptr %0, null
  %4 = icmp eq ptr %1, null
  %or.cond = or i1 %3, %4
  br i1 %or.cond, label %8, label %5

5:                                                ; preds = %2
  %6 = load ptr, ptr %1, align 8, !tbaa !15
  %7 = icmp eq ptr %6, null
  br i1 %7, label %8, label %9

8:                                                ; preds = %5, %2
  tail call void @ERR_new() #7
  tail call void @ERR_set_debug(ptr noundef nonnull @.str, i32 noundef 1191, ptr noundef nonnull @__func__.OSSL_CMP_MSG_update_recipNonce) #7
  tail call void (i32, i32, ptr, ...) @ERR_set_error(i32 noundef 58, i32 noundef 103, ptr noundef null) #7
  br label %25

9:                                                ; preds = %5
  %10 = getelementptr inbounds nuw i8, ptr %0, i64 296
  %11 = load ptr, ptr %10, align 8, !tbaa !120
  %12 = icmp eq ptr %11, null
  br i1 %12, label %25, label %13

13:                                               ; preds = %9
  %14 = getelementptr inbounds nuw i8, ptr %6, i64 72
  %15 = tail call i32 @ossl_cmp_asn1_octet_string_set1(ptr noundef nonnull %14, ptr noundef nonnull %11) #7
  %.not = icmp eq i32 %15, 0
  br i1 %.not, label %25, label %16

16:                                               ; preds = %13
  %17 = load ptr, ptr %1, align 8, !tbaa !15
  %18 = getelementptr inbounds nuw i8, ptr %17, i64 32
  %19 = load ptr, ptr %18, align 8, !tbaa !117
  %20 = icmp eq ptr %19, null
  br i1 %20, label %25, label %21

21:                                               ; preds = %16
  %22 = tail call i32 @ossl_cmp_msg_protect(ptr noundef nonnull %0, ptr noundef nonnull %1) #7
  %23 = icmp ne i32 %22, 0
  %24 = zext i1 %23 to i32
  br label %25

25:                                               ; preds = %16, %21, %13, %9, %8
  %.0 = phi i32 [ 0, %8 ], [ 1, %9 ], [ 0, %13 ], [ 1, %16 ], [ %24, %21 ]
  ret i32 %.0
}